target datalayout = "e-m:e-p270:32:32-p271:32:32-p272:64:64-i64:64-i128:128-f80:128-n8:16:32:64-S128"
target triple = "x86_64-pc-linux-gnu"

%struct.curl_trc_feat = type { ptr, i32 }
%struct.Curl_easy = type { i32, i64, i64, ptr, %struct.Curl_llist_node, %struct.Curl_llist_node, i32, i32, %struct.Curl_message, %struct.easy_pollset, %struct.Names, ptr, ptr, ptr, %struct.SingleRequest, %struct.UserDefined, ptr, ptr, %struct.Progress, %struct.UrlState, ptr, %struct.PureInfo, %struct.curl_tlssessioninfo }
%struct.Curl_llist_node = type { ptr, ptr, ptr, ptr }
%struct.Curl_message = type { %struct.Curl_llist_node, %struct.CURLMsg }
%struct.CURLMsg = type { i32, ptr, %union.anon }
%union.anon = type { ptr }
%struct.easy_pollset = type { [5 x i32], i32, [5 x i8] }
%struct.Names = type { ptr, i32 }
%struct.SingleRequest = type <{ i64, i64, i64, i64, %struct.curltime, i32, i32, i32, i32, i64, i32, i32, i32, i32, ptr, ptr, %struct.bufq, i64, i64, ptr, ptr, %union.anon.0, ptr, i8, i32, [3 x i8] }>
%struct.curltime = type { i64, i32 }
%struct.bufq = type { ptr, ptr, ptr, ptr, i64, i64, i64, i32 }
%union.anon.0 = type { ptr }
%struct.UserDefined = type <{ ptr, ptr, ptr, ptr, ptr, ptr, i16, [6 x i8], i64, i64, i64, ptr, ptr, i64, i16, i16, [4 x i8], ptr, ptr, ptr, ptr, ptr, ptr, ptr, ptr, ptr, ptr, ptr, ptr, ptr, ptr, ptr, ptr, ptr, ptr, ptr, ptr, ptr, ptr, ptr, i32, i32, i32, i32, i32, [4 x i8], i64, i64, i64, i64, i64, i64, i64, i64, ptr, ptr, %struct.curl_mimepart, ptr, ptr, i64, i8, i8, i8, [5 x i8], %struct.ssl_config_data, %struct.ssl_config_data, ptr, i16, i8, i8, [4 x i8], %struct.ssl_general_config, i32, i32, i32, [4 x i8], ptr, ptr, i8, [7 x i8], i64, i8, i8, i8, i8, i32, ptr, ptr, ptr, i8, i8, [2 x i8], i32, [63 x ptr], [8 x ptr], i32, i32, i32, [4 x i8], ptr, ptr, ptr, ptr, ptr, i8, [3 x i8], i32, i32, i32, i64, %struct.Curl_data_priority, ptr, ptr, i64, ptr, i64, ptr, ptr, ptr, i8, [3 x i8], i32, i8, i8, i64, [6 x i8] }>
%struct.curl_mimepart = type { ptr, ptr, i32, i32, ptr, ptr, ptr, ptr, ptr, ptr, ptr, ptr, ptr, ptr, ptr, i64, %struct.mime_state, ptr, %struct.mime_encoder_state, i64 }
%struct.mime_state = type { i32, ptr, i64 }
%struct.mime_encoder_state = type { i64, i64, i64, [256 x i8] }
%struct.ssl_config_data = type { %struct.ssl_primary_config, i64, ptr, ptr, ptr, ptr, ptr, ptr, ptr, i16 }
%struct.ssl_primary_config = type { ptr, ptr, ptr, ptr, ptr, ptr, ptr, ptr, ptr, ptr, ptr, ptr, i8, i32, i8, i8 }
%struct.ssl_general_config = type { i64, i32 }
%struct.Curl_data_priority = type { ptr, ptr, i32, i8 }
%struct.Progress = type { i64, %struct.pgrs_dir, %struct.pgrs_dir, i64, i64, i32, i32, i64, i64, i64, i64, i64, i64, i64, i64, i64, %struct.curltime, %struct.curltime, %struct.curltime, %struct.curltime, [6 x i64], [6 x %struct.curltime], i32, i8 }
%struct.pgrs_dir = type { i64, i64, i64, %struct.pgrs_measure }
%struct.pgrs_measure = type { %struct.curltime, i64 }
%struct.UrlState = type { %struct.curltime, i64, i64, %struct.dynbuf, ptr, i64, ptr, i32, i32, i32, ptr, i64, i32, i64, i32, ptr, %struct.digestdata, %struct.digestdata, %struct.auth, %struct.auth, %struct.Curl_async, ptr, %struct.curltime, %struct.Curl_tree, %struct.Curl_llist, [15 x %struct.time_node], ptr, ptr, i64, i64, %struct.Curl_data_priority, ptr, ptr, ptr, %struct.urlpieces, ptr, ptr, ptr, ptr, ptr, i64, %struct.dynbuf, %struct.Curl_llist, [2 x %struct.curl_header], ptr, i32, ptr, ptr, %struct.store_netrc, %struct.dynamically_allocated_data, i8, i8, i8, i8, i32 }
%struct.digestdata = type { ptr, ptr, ptr, ptr, ptr, ptr, i32, i8, i8 }
%struct.auth = type { i64, i64, i64, i8 }
%struct.Curl_async = type { ptr, ptr, ptr, ptr, i32, i32, i8 }
%struct.Curl_tree = type { ptr, ptr, ptr, ptr, %struct.curltime, ptr }
%struct.time_node = type { %struct.Curl_llist_node, %struct.curltime, i32 }
%struct.urlpieces = type { ptr, ptr, ptr, ptr, ptr, ptr, ptr, ptr }
%struct.dynbuf = type { ptr, i64, i64, i64 }
%struct.Curl_llist = type { ptr, ptr, ptr, i64 }
%struct.curl_header = type { ptr, ptr, i64, i64, i32, ptr }
%struct.store_netrc = type { %struct.dynbuf, ptr, i8 }
%struct.dynamically_allocated_data = type { ptr, ptr, ptr, ptr, ptr, ptr, ptr, ptr, ptr, ptr, ptr, ptr, ptr }
%struct.PureInfo = type { i32, i32, i32, i64, i64, i64, i64, i64, ptr, ptr, i64, i32, %struct.ip_quadruple, i32, ptr, i32, %struct.curl_certinfo, i32, i8 }
%struct.ip_quadruple = type { [46 x i8], [46 x i8], i32, i32 }
%struct.curl_certinfo = type { i32, ptr }
%struct.curl_tlssessioninfo = type { i32, ptr }
%struct.connectdata = type { %struct.Curl_llist_node, ptr, ptr, i64, ptr, i64, ptr, ptr, %struct.hostname, ptr, ptr, %struct.hostname, %struct.proxy_info, %struct.proxy_info, %struct.ip_quadruple, %struct.ip_quadruple, ptr, ptr, ptr, ptr, ptr, %struct.curltime, %struct.curltime, %struct.curltime, [2 x i32], [2 x ptr], [2 x ptr], [2 x ptr], %struct.anon, %struct.easy_pollset, %struct.ssl_primary_config, %struct.ssl_primary_config, %struct.ConnectBits, ptr, ptr, %struct.curltime, i32, i32, %struct.Curl_llist, i32, i32, %struct.ntlmdata, %struct.ntlmdata, %union.anon.1, ptr, i16, i32, i32, i32, i32, i16, i16, i8, i8, i8, i8, i8, i8, i8 }
%struct.hostname = type { ptr, ptr, ptr, ptr }
%struct.proxy_info = type { %struct.hostname, i32, i8, ptr, ptr }
%struct.anon = type { [2 x %struct.curltime], i32 }
%struct.ConnectBits = type { i64 }
%struct.ntlmdata = type { i32, [8 x i8], i32, ptr }
%union.anon.1 = type { %struct.ftp_conn }
%struct.ftp_conn = type { %struct.pingpong, ptr, ptr, ptr, ptr, ptr, ptr, ptr, i8, i64, ptr, i64, i32, i32, i32, i32, i32, i16, i8, i8, i8, i8, i8 }
%struct.pingpong = type { i64, i8, ptr, i64, i64, %struct.curltime, i64, %struct.dynbuf, %struct.dynbuf, i64, i64, ptr, ptr }
%struct.Curl_handler = type { ptr, ptr, ptr, ptr, ptr, ptr, ptr, ptr, ptr, ptr, ptr, ptr, ptr, ptr, ptr, ptr, ptr, i32, i32, i32, i32 }

@Curl_trc_feat_write = external global %struct.curl_trc_feat, align 8
@.str.11 = private unnamed_addr constant [39 x i8] c"xfer_write_resp(len=%zu, eos=%d) -> %d\00", align 1

; Function Attrs: nounwind uwtable
define dso_local i32 @Curl_xfer_write_resp(ptr noundef %0, ptr noundef %1, i64 noundef %2, i1 noundef zeroext %3) #0 {
  %5 = alloca ptr, align 8
  %6 = alloca ptr, align 8
  %7 = alloca i64, align 8
  %8 = alloca i8, align 1
  %9 = alloca i32, align 4
  %10 = alloca i32, align 4
  store ptr %0, ptr %5, align 8, !tbaa !4
  store ptr %1, ptr %6, align 8, !tbaa !9
  store i64 %2, ptr %7, align 8, !tbaa !11
  %11 = zext i1 %3 to i8
  store i8 %11, ptr %8, align 1, !tbaa !118
  call void @llvm.lifetime.start.p0(i64 4, ptr %9) #4
  store i32 0, ptr %9, align 4, !tbaa !104
  %12 = load ptr, ptr %5, align 8, !tbaa !4
  %13 = getelementptr inbounds nuw %struct.Curl_easy, ptr %12, i32 0, i32 3
  %14 = load ptr, ptr %13, align 8, !tbaa !94
  %15 = getelementptr inbounds nuw %struct.connectdata, ptr %14, i32 0, i32 33
  %16 = load ptr, ptr %15, align 8, !tbaa !166
  %17 = getelementptr inbounds nuw %struct.Curl_handler, ptr %16, i32 0, i32 13
  %18 = load ptr, ptr %17, align 8, !tbaa !173
  %19 = icmp ne ptr %18, null
  br i1 %19, label %20, label %34

20:                                               ; preds = %4
  %21 = load ptr, ptr %5, align 8, !tbaa !4
  %22 = getelementptr inbounds nuw %struct.Curl_easy, ptr %21, i32 0, i32 3
  %23 = load ptr, ptr %22, align 8, !tbaa !94
  %24 = getelementptr inbounds nuw %struct.connectdata, ptr %23, i32 0, i32 33
  %25 = load ptr, ptr %24, align 8, !tbaa !166
  %26 = getelementptr inbounds nuw %struct.Curl_handler, ptr %25, i32 0, i32 13
  %27 = load ptr, ptr %26, align 8, !tbaa !173
  %28 = load ptr, ptr %5, align 8, !tbaa !4
  %29 = load ptr, ptr %6, align 8, !tbaa !9
  %30 = load i64, ptr %7, align 8, !tbaa !11
  %31 = load i8, ptr %8, align 1, !tbaa !118, !range !120, !noundef !121
  %32 = trunc i8 %31 to i1
  %33 = call i32 %27(ptr noundef %28, ptr noundef %29, i64 noundef %30, i1 noundef zeroext %32)
  store i32 %33, ptr %9, align 4, !tbaa !104
  br label %53

34:                                               ; preds = %4
  %35 = load i64, ptr %7, align 8, !tbaa !11
  %36 = icmp ne i64 %35, 0
  br i1 %36, label %40, label %37

37:                                               ; preds = %34
  %38 = load i8, ptr %8, align 1, !tbaa !118, !range !120, !noundef !121
  %39 = trunc i8 %38 to i1
  br i1 %39, label %40, label %52

40:                                               ; preds = %37, %34
  call void @llvm.lifetime.start.p0(i64 4, ptr %10) #4
  store i32 1, ptr %10, align 4, !tbaa !104
  %41 = load i8, ptr %8, align 1, !tbaa !118, !range !120, !noundef !121
  %42 = trunc i8 %41 to i1
  br i1 %42, label %43, label %46

43:                                               ; preds = %40
  %44 = load i32, ptr %10, align 4, !tbaa !104
  %45 = or i32 %44, 128
  store i32 %45, ptr %10, align 4, !tbaa !104
  br label %46

46:                                               ; preds = %43, %40
  %47 = load ptr, ptr %5, align 8, !tbaa !4
  %48 = load i32, ptr %10, align 4, !tbaa !104
  %49 = load ptr, ptr %6, align 8, !tbaa !9
  %50 = load i64, ptr %7, align 8, !tbaa !11
  %51 = call i32 @Curl_client_write(ptr noundef %47, i32 noundef %48, ptr noundef %49, i64 noundef %50)
  store i32 %51, ptr %9, align 4, !tbaa !104
  call void @llvm.lifetime.end.p0(i64 4, ptr %10) #4
  br label %52

52:                                               ; preds = %46, %37
  br label %53

53:                                               ; preds = %52, %20
  %54 = load i32, ptr %9, align 4, !tbaa !104
  %55 = icmp ne i32 %54, 0
  br i1 %55, label %72, label %56

56:                                               ; preds = %53
  %57 = load i8, ptr %8, align 1, !tbaa !118, !range !120, !noundef !121
  %58 = trunc i8 %57 to i1
  br i1 %58, label %59, label %72

59:                                               ; preds = %56
  %60 = load ptr, ptr %5, align 8, !tbaa !4
  %61 = getelementptr inbounds nuw %struct.Curl_easy, ptr %60, i32 0, i32 14
  %62 = getelementptr inbounds nuw %struct.SingleRequest, ptr %61, i32 0, i32 24
  %63 = load i32, ptr %62, align 1
  %64 = and i32 %63, -17
  %65 = or i32 %64, 16
  store i32 %65, ptr %62, align 1
  %66 = load ptr, ptr %5, align 8, !tbaa !4
  %67 = getelementptr inbounds nuw %struct.Curl_easy, ptr %66, i32 0, i32 14
  %68 = getelementptr inbounds nuw %struct.SingleRequest, ptr %67, i32 0, i32 24
  %69 = load i32, ptr %68, align 1
  %70 = and i32 %69, -9
  %71 = or i32 %70, 8
  store i32 %71, ptr %68, align 1
  br label %72

72:                                               ; preds = %59, %56, %53
  br label %73

73:                                               ; preds = %72
  %74 = load ptr, ptr %5, align 8, !tbaa !4
  %75 = icmp ne ptr %74, null
  br i1 %75, label %76, label %109

76:                                               ; preds = %73
  %77 = load ptr, ptr %5, align 8, !tbaa !4
  %78 = getelementptr inbounds nuw %struct.Curl_easy, ptr %77, i32 0, i32 15
  %79 = getelementptr inbounds nuw %struct.UserDefined, ptr %78, i32 0, i32 124
  %80 = load i64, ptr %79, align 2
  %81 = lshr i64 %80, 27
  %82 = and i64 %81, 1
  %83 = trunc i64 %82 to i32
  %84 = icmp ne i32 %83, 0
  br i1 %84, label %85, label %109

85:                                               ; preds = %76
  %86 = load ptr, ptr %5, align 8, !tbaa !4
  %87 = getelementptr inbounds nuw %struct.Curl_easy, ptr %86, i32 0, i32 19
  %88 = getelementptr inbounds nuw %struct.UrlState, ptr %87, i32 0, i32 47
  %89 = load ptr, ptr %88, align 8, !tbaa !89
  %90 = icmp ne ptr %89, null
  br i1 %90, label %91, label %99

91:                                               ; preds = %85
  %92 = load ptr, ptr %5, align 8, !tbaa !4
  %93 = getelementptr inbounds nuw %struct.Curl_easy, ptr %92, i32 0, i32 19
  %94 = getelementptr inbounds nuw %struct.UrlState, ptr %93, i32 0, i32 47
  %95 = load ptr, ptr %94, align 8, !tbaa !89
  %96 = getelementptr inbounds nuw %struct.curl_trc_feat, ptr %95, i32 0, i32 1
  %97 = load i32, ptr %96, align 8, !tbaa !90
  %98 = icmp sge i32 %97, 1
  br i1 %98, label %99, label %109

99:                                               ; preds = %91, %85
  %100 = load i32, ptr getelementptr inbounds nuw (%struct.curl_trc_feat, ptr @Curl_trc_feat_write, i32 0, i32 1), align 8, !tbaa !90
  %101 = icmp sge i32 %100, 1
  br i1 %101, label %102, label %109

102:                                              ; preds = %99
  %103 = load ptr, ptr %5, align 8, !tbaa !4
  %104 = load i64, ptr %7, align 8, !tbaa !11
  %105 = load i8, ptr %8, align 1, !tbaa !118, !range !120, !noundef !121
  %106 = trunc i8 %105 to i1
  %107 = zext i1 %106 to i32
  %108 = load i32, ptr %9, align 4, !tbaa !104
  call void (ptr, ptr, ...) @Curl_trc_write(ptr noundef %103, ptr noundef @.str.11, i64 noundef %104, i32 noundef %107, i32 noundef %108)
  br label %109

109:                                              ; preds = %102, %99, %91, %76, %73
  br label %110

110:                                              ; preds = %109
  br label %111

111:                                              ; preds = %110
  %112 = load i32, ptr %9, align 4, !tbaa !104
  call void @llvm.lifetime.end.p0(i64 4, ptr %9) #4
  ret i32 %112
}

; Function Attrs: nounwind uwtable
define dso_local i32 @Curl_xfer_write_resp_hd(ptr noundef %0, ptr noundef %1, i64 noundef %2, i1 noundef zeroext %3) #0 {
  %5 = alloca i32, align 4
  %6 = alloca ptr, align 8
  %7 = alloca ptr, align 8
  %8 = alloca i64, align 8
  %9 = alloca i8, align 1
  store ptr %0, ptr %6, align 8, !tbaa !4
  store ptr %1, ptr %7, align 8, !tbaa !9
  store i64 %2, ptr %8, align 8, !tbaa !11
  %10 = zext i1 %3 to i8
  store i8 %10, ptr %9, align 1, !tbaa !118
  %11 = load ptr, ptr %6, align 8, !tbaa !4
  %12 = getelementptr inbounds nuw %struct.Curl_easy, ptr %11, i32 0, i32 3
  %13 = load ptr, ptr %12, align 8, !tbaa !94
  %14 = getelementptr inbounds nuw %struct.connectdata, ptr %13, i32 0, i32 33
  %15 = load ptr, ptr %14, align 8, !tbaa !166
  %16 = getelementptr inbounds nuw %struct.Curl_handler, ptr %15, i32 0, i32 14
  %17 = load ptr, ptr %16, align 8, !tbaa !174
  %18 = icmp ne ptr %17, null
  br i1 %18, label %19, label %33

19:                                               ; preds = %4
  %20 = load ptr, ptr %6, align 8, !tbaa !4
  %21 = getelementptr inbounds nuw %struct.Curl_easy, ptr %20, i32 0, i32 3
  %22 = load ptr, ptr %21, align 8, !tbaa !94
  %23 = getelementptr inbounds nuw %struct.connectdata, ptr %22, i32 0, i32 33
  %24 = load ptr, ptr %23, align 8, !tbaa !166
  %25 = getelementptr inbounds nuw %struct.Curl_handler, ptr %24, i32 0, i32 14
  %26 = load ptr, ptr %25, align 8, !tbaa !174
  %27 = load ptr, ptr %6, align 8, !tbaa !4
  %28 = load ptr, ptr %7, align 8, !tbaa !9
  %29 = load i64, ptr %8, align 8, !tbaa !11
  %30 = load i8, ptr %9, align 1, !tbaa !118, !range !120, !noundef !121
  %31 = trunc i8 %30 to i1
  %32 = call i32 %26(ptr noundef %27, ptr noundef %28, i64 noundef %29, i1 noundef zeroext %31)
  store i32 %32, ptr %5, align 4
  br label %40

33:                                               ; preds = %4
  %34 = load ptr, ptr %6, align 8, !tbaa !4
  %35 = load ptr, ptr %7, align 8, !tbaa !9
  %36 = load i64, ptr %8, align 8, !tbaa !11
  %37 = load i8, ptr %9, align 1, !tbaa !118, !range !120, !noundef !121
  %38 = trunc i8 %37 to i1
  %39 = call i32 @Curl_xfer_write_resp(ptr noundef %34, ptr noundef %35, i64 noundef %36, i1 noundef zeroext %38)
  store i32 %39, ptr %5, align 4
  br label %40

40:                                               ; preds = %33, %19
  %41 = load i32, ptr %5, align 4
  ret i32 %41
}