; Function Attrs: nounwind uwtable
define dso_local i32 @Curl_xfer_write_resp_hd(ptr noundef %0, ptr noundef %1, i64 noundef %2, i1 noundef zeroext %3) local_unnamed_addr #0 {
  %5 = getelementptr inbounds nuw i8, ptr %0, i64 24
  %6 = load ptr, ptr %5, align 8, !tbaa !87
  %7 = getelementptr inbounds nuw i8, ptr %6, i64 928
  %8 = load ptr, ptr %7, align 8, !tbaa !112
  %9 = getelementptr inbounds nuw i8, ptr %8, i64 112
  %10 = load ptr, ptr %9, align 8, !tbaa !161
  %.not = icmp eq ptr %10, null
  br i1 %.not, label %13, label %11

11:                                               ; preds = %4
  %12 = tail call i32 %10(ptr noundef nonnull %0, ptr noundef %1, i64 noundef %2, i1 noundef zeroext %3) #6
  br label %Curl_xfer_write_resp.exit

13:                                               ; preds = %4
  %14 = getelementptr inbounds nuw i8, ptr %8, i64 104
  %15 = load ptr, ptr %14, align 8, !tbaa !113
  %.not.i = icmp eq ptr %15, null
  br i1 %.not.i, label %18, label %16

16:                                               ; preds = %13
  %17 = tail call i32 %15(ptr noundef nonnull %0, ptr noundef %1, i64 noundef %2, i1 noundef zeroext %3) #6
  br label %21

18:                                               ; preds = %13
  %.not31.i = icmp ne i64 %2, 0
  %brmerge.i = or i1 %.not31.i, %3
  br i1 %brmerge.i, label %19, label %21

19:                                               ; preds = %18
  %spec.select.i = select i1 %3, i32 129, i32 1
  %20 = tail call i32 @Curl_client_write(ptr noundef nonnull %0, i32 noundef %spec.select.i, ptr noundef %1, i64 noundef %2) #6
  br label %21

21:                                               ; preds = %19, %18, %16
  %.027.i = phi i32 [ %17, %16 ], [ %20, %19 ], [ 0, %18 ]
  %.not32.i = icmp eq i32 %.027.i, 0
  %brmerge37.not.i = and i1 %3, %.not32.i
  br i1 %brmerge37.not.i, label %22, label %26

22:                                               ; preds = %21
  %23 = getelementptr inbounds nuw i8, ptr %0, i64 449
  %24 = load i32, ptr %23, align 1
  %25 = or i32 %24, 24
  store i32 %25, ptr %23, align 1
  br label %26

26:                                               ; preds = %22, %21
  %27 = getelementptr inbounds nuw i8, ptr %0, i64 2562
  %28 = load i64, ptr %27, align 2
  %29 = and i64 %28, 134217728
  %.not34.i = icmp eq i64 %29, 0
  br i1 %.not34.i, label %Curl_xfer_write_resp.exit, label %30

30:                                               ; preds = %26
  %31 = getelementptr inbounds nuw i8, ptr %0, i64 4712
  %32 = load ptr, ptr %31, align 8, !tbaa !84
  %.not35.i = icmp eq ptr %32, null
  br i1 %.not35.i, label %39, label %33

33:                                               ; preds = %30
  %34 = getelementptr inbounds nuw i8, ptr %32, i64 8
  %35 = load i32, ptr %34, align 8, !tbaa !85
  %36 = icmp sgt i32 %35, 0
  %37 = load i32, ptr getelementptr inbounds nuw (i8, ptr @Curl_trc_feat_write, i64 8), align 8
  %38 = icmp sgt i32 %37, 0
  %or.cond.i = select i1 %36, i1 %38, i1 false
  br i1 %or.cond.i, label %40, label %Curl_xfer_write_resp.exit

39:                                               ; preds = %30
  %.old.i = load i32, ptr getelementptr inbounds nuw (i8, ptr @Curl_trc_feat_write, i64 8), align 8, !tbaa !85
  %.old1.i = icmp sgt i32 %.old.i, 0
  br i1 %.old1.i, label %40, label %Curl_xfer_write_resp.exit

40:                                               ; preds = %39, %33
  %41 = zext i1 %3 to i32
  tail call void (ptr, ptr, ...) @Curl_trc_write(ptr noundef nonnull %0, ptr noundef nonnull @.str.11, i64 noundef %2, i32 noundef %41, i32 noundef %.027.i) #6
  br label %Curl_xfer_write_resp.exit

Curl_xfer_write_resp.exit:                        ; preds = %40, %39, %33, %26, %11
  %.0 = phi i32 [ %12, %11 ], [ %.027.i, %26 ], [ %.027.i, %33 ], [ %.027.i, %39 ], [ %.027.i, %40 ]
  ret i32 %.0
}